target datalayout = "e-m:e-p270:32:32-p271:32:32-p272:64:64-i64:64-i128:128-f80:128-n8:16:32:64-S128"
target triple = "x86_64-pc-linux-gnu"

%struct.JNINativeInterface_ = type { ptr, ptr, ptr, ptr, ptr, ptr, ptr, ptr, ptr, ptr, ptr, ptr, ptr, ptr, ptr, ptr, ptr, ptr, ptr, ptr, ptr, ptr, ptr, ptr, ptr, ptr, ptr, ptr, ptr, ptr, ptr, ptr, ptr, ptr, ptr, ptr, ptr, ptr, ptr, ptr, ptr, ptr, ptr, ptr, ptr, ptr, ptr, ptr, ptr, ptr, ptr, ptr, ptr, ptr, ptr, ptr, ptr, ptr, ptr, ptr, ptr, ptr, ptr, ptr, ptr, ptr, ptr, ptr, ptr, ptr, ptr, ptr, ptr, ptr, ptr, ptr, ptr, ptr, ptr, ptr, ptr, ptr, ptr, ptr, ptr, ptr, ptr, ptr, ptr, ptr, ptr, ptr, ptr, ptr, ptr, ptr, ptr, ptr, ptr, ptr, ptr, ptr, ptr, ptr, ptr, ptr, ptr, ptr, ptr, ptr, ptr, ptr, ptr, ptr, ptr, ptr, ptr, ptr, ptr, ptr, ptr, ptr, ptr, ptr, ptr, ptr, ptr, ptr, ptr, ptr, ptr, ptr, ptr, ptr, ptr, ptr, ptr, ptr, ptr, ptr, ptr, ptr, ptr, ptr, ptr, ptr, ptr, ptr, ptr, ptr, ptr, ptr, ptr, ptr, ptr, ptr, ptr, ptr, ptr, ptr, ptr, ptr, ptr, ptr, ptr, ptr, ptr, ptr, ptr, ptr, ptr, ptr, ptr, ptr, ptr, ptr, ptr, ptr, ptr, ptr, ptr, ptr, ptr, ptr, ptr, ptr, ptr, ptr, ptr, ptr, ptr, ptr, ptr, ptr, ptr, ptr, ptr, ptr, ptr, ptr, ptr, ptr, ptr, ptr, ptr, ptr, ptr, ptr, ptr, ptr, ptr, ptr, ptr, ptr, ptr, ptr, ptr, ptr, ptr, ptr, ptr, ptr, ptr, ptr, ptr, ptr, ptr, ptr, ptr, ptr, ptr, ptr, ptr, ptr, ptr }

; Function Attrs: nounwind uwtable
define internal ptr @getUTF(ptr noundef %0, ptr noundef %1, ptr noundef %2, i32 noundef %3) #0 {
  %5 = alloca ptr, align 8
  %6 = alloca ptr, align 8
  %7 = alloca ptr, align 8
  %8 = alloca ptr, align 8
  %9 = alloca i32, align 4
  %10 = alloca ptr, align 8
  %11 = alloca i32, align 4
  %12 = alloca i32, align 4
  store ptr %0, ptr %6, align 8
  store ptr %1, ptr %7, align 8
  store ptr %2, ptr %8, align 8
  store i32 %3, ptr %9, align 4
  store ptr null, ptr %10, align 8
  %13 = load ptr, ptr %6, align 8
  %14 = load ptr, ptr %13, align 8
  %15 = getelementptr inbounds %struct.JNINativeInterface_, ptr %14, i32 0, i32 168
  %16 = load ptr, ptr %15, align 8
  %17 = load ptr, ptr %6, align 8
  %18 = load ptr, ptr %7, align 8
  %19 = call i32 %16(ptr noundef %17, ptr noundef %18)
  store i32 %19, ptr %11, align 4
  %20 = load ptr, ptr %6, align 8
  %21 = load ptr, ptr %20, align 8
  %22 = getelementptr inbounds %struct.JNINativeInterface_, ptr %21, i32 0, i32 164
  %23 = load ptr, ptr %22, align 8
  %24 = load ptr, ptr %6, align 8
  %25 = load ptr, ptr %7, align 8
  %26 = call i32 %23(ptr noundef %24, ptr noundef %25)
  store i32 %26, ptr %12, align 4
  %27 = load i32, ptr %11, align 4
  %28 = load i32, ptr %9, align 4
  %29 = icmp sge i32 %27, %28
  br i1 %29, label %30, label %40

30:                                               ; preds = %4
  %31 = load i32, ptr %11, align 4
  %32 = add nsw i32 %31, 1
  %33 = sext i32 %32 to i64
  %34 = call noalias ptr @malloc(i64 noundef %33) #4
  store ptr %34, ptr %10, align 8
  %35 = load ptr, ptr %10, align 8
  %36 = icmp eq ptr %35, null
  br i1 %36, label %37, label %39

37:                                               ; preds = %30
  %38 = load ptr, ptr %6, align 8
  call void @JNU_ThrowOutOfMemoryError(ptr noundef %38, ptr noundef null)
  store ptr null, ptr %5, align 8
  br label %52

39:                                               ; preds = %30
  br label %42

40:                                               ; preds = %4
  %41 = load ptr, ptr %8, align 8
  store ptr %41, ptr %10, align 8
  br label %42

42:                                               ; preds = %40, %39
  %43 = load ptr, ptr %6, align 8
  %44 = load ptr, ptr %43, align 8
  %45 = getelementptr inbounds %struct.JNINativeInterface_, ptr %44, i32 0, i32 221
  %46 = load ptr, ptr %45, align 8
  %47 = load ptr, ptr %6, align 8
  %48 = load ptr, ptr %7, align 8
  %49 = load i32, ptr %12, align 4
  %50 = load ptr, ptr %10, align 8
  call void %46(ptr noundef %47, ptr noundef %48, i32 noundef 0, i32 noundef %49, ptr noundef %50)
  %51 = load ptr, ptr %10, align 8
  store ptr %51, ptr %5, align 8
  br label %52

52:                                               ; preds = %42, %37
  %53 = load ptr, ptr %5, align 8
  ret ptr %53
}

; Function Attrs: nounwind uwtable
define ptr @Java_java_lang_ClassLoader_defineClass2(ptr noundef %0, ptr noundef %1, ptr noundef %2, ptr noundef %3, ptr noundef %4, i32 noundef %5, i32 noundef %6, ptr noundef %7, ptr noundef %8) #0 {
  %10 = alloca ptr, align 8
  %11 = alloca ptr, align 8
  %12 = alloca ptr, align 8
  %13 = alloca ptr, align 8
  %14 = alloca ptr, align 8
  %15 = alloca ptr, align 8
  %16 = alloca i32, align 4
  %17 = alloca i32, align 4
  %18 = alloca ptr, align 8
  %19 = alloca ptr, align 8
  %20 = alloca ptr, align 8
  %21 = alloca ptr, align 8
  %22 = alloca ptr, align 8
  %23 = alloca [128 x i8], align 16
  %24 = alloca ptr, align 8
  %25 = alloca [1024 x i8], align 16
  store ptr %0, ptr %11, align 8
  store ptr %1, ptr %12, align 8
  store ptr %2, ptr %13, align 8
  store ptr %3, ptr %14, align 8
  store ptr %4, ptr %15, align 8
  store i32 %5, ptr %16, align 4
  store i32 %6, ptr %17, align 4
  store ptr %7, ptr %18, align 8
  store ptr %8, ptr %19, align 8
  store ptr null, ptr %22, align 8
  %26 = load ptr, ptr %11, align 8
  %27 = load ptr, ptr %26, align 8
  %28 = getelementptr inbounds %struct.JNINativeInterface_, ptr %27, i32 0, i32 230
  %29 = load ptr, ptr %28, align 8
  %30 = load ptr, ptr %11, align 8
  %31 = load ptr, ptr %15, align 8
  %32 = call ptr %29(ptr noundef %30, ptr noundef %31)
  store ptr %32, ptr %20, align 8
  %33 = load ptr, ptr %20, align 8
  %34 = icmp eq ptr %33, null
  br i1 %34, label %35, label %37

35:                                               ; preds = %9
  %36 = load ptr, ptr %11, align 8
  call void @JNU_ThrowNullPointerException(ptr noundef %36, ptr noundef null)
  store ptr null, ptr %10, align 8
  br label %98

37:                                               ; preds = %9
  %38 = load i32, ptr %16, align 4
  %39 = load ptr, ptr %20, align 8
  %40 = sext i32 %38 to i64
  %41 = getelementptr inbounds i8, ptr %39, i64 %40
  store ptr %41, ptr %20, align 8
  %42 = load ptr, ptr %14, align 8
  %43 = icmp ne ptr %42, null
  br i1 %43, label %44, label %55

44:                                               ; preds = %37
  %45 = load ptr, ptr %11, align 8
  %46 = load ptr, ptr %14, align 8
  %47 = getelementptr inbounds [128 x i8], ptr %23, i64 0, i64 0
  %48 = call ptr @getUTF(ptr noundef %45, ptr noundef %46, ptr noundef %47, i32 noundef 128)
  store ptr %48, ptr %21, align 8
  %49 = load ptr, ptr %21, align 8
  %50 = icmp eq ptr %49, null
  br i1 %50, label %51, label %53

51:                                               ; preds = %44
  %52 = load ptr, ptr %22, align 8
  store ptr %52, ptr %10, align 8
  br label %98

53:                                               ; preds = %44
  %54 = load ptr, ptr %21, align 8
  call void @fixClassname(ptr noundef %54)
  br label %56

55:                                               ; preds = %37
  store ptr null, ptr %21, align 8
  br label %56

56:                                               ; preds = %55, %53
  %57 = load ptr, ptr %19, align 8
  %58 = icmp ne ptr %57, null
  br i1 %58, label %59, label %68

59:                                               ; preds = %56
  %60 = load ptr, ptr %11, align 8
  %61 = load ptr, ptr %19, align 8
  %62 = getelementptr inbounds [1024 x i8], ptr %25, i64 0, i64 0
  %63 = call ptr @getUTF(ptr noundef %60, ptr noundef %61, ptr noundef %62, i32 noundef 1024)
  store ptr %63, ptr %24, align 8
  %64 = load ptr, ptr %24, align 8
  %65 = icmp eq ptr %64, null
  br i1 %65, label %66, label %67

66:                                               ; preds = %59
  br label %87

67:                                               ; preds = %59
  br label %69

68:                                               ; preds = %56
  store ptr null, ptr %24, align 8
  br label %69

69:                                               ; preds = %68, %67
  %70 = load ptr, ptr %11, align 8
  %71 = load ptr, ptr %21, align 8
  %72 = load ptr, ptr %13, align 8
  %73 = load ptr, ptr %20, align 8
  %74 = load i32, ptr %17, align 4
  %75 = load ptr, ptr %18, align 8
  %76 = load ptr, ptr %24, align 8
  %77 = call ptr @JVM_DefineClassWithSource(ptr noundef %70, ptr noundef %71, ptr noundef %72, ptr noundef %73, i32 noundef %74, ptr noundef %75, ptr noundef %76)
  store ptr %77, ptr %22, align 8
  %78 = load ptr, ptr %24, align 8
  %79 = icmp ne ptr %78, null
  br i1 %79, label %80, label %86

80:                                               ; preds = %69
  %81 = load ptr, ptr %24, align 8
  %82 = getelementptr inbounds [1024 x i8], ptr %25, i64 0, i64 0
  %83 = icmp ne ptr %81, %82
  br i1 %83, label %84, label %86

84:                                               ; preds = %80
  %85 = load ptr, ptr %24, align 8
  call void @free(ptr noundef %85) #5
  br label %86

86:                                               ; preds = %84, %80, %69
  br label %87

87:                                               ; preds = %86, %66
  %88 = load ptr, ptr %21, align 8
  %89 = icmp ne ptr %88, null
  br i1 %89, label %90, label %96

90:                                               ; preds = %87
  %91 = load ptr, ptr %21, align 8
  %92 = getelementptr inbounds [128 x i8], ptr %23, i64 0, i64 0
  %93 = icmp ne ptr %91, %92
  br i1 %93, label %94, label %96

94:                                               ; preds = %90
  %95 = load ptr, ptr %21, align 8
  call void @free(ptr noundef %95) #5
  br label %96

96:                                               ; preds = %94, %90, %87
  %97 = load ptr, ptr %22, align 8
  store ptr %97, ptr %10, align 8
  br label %98

98:                                               ; preds = %96, %51, %35
  %99 = load ptr, ptr %10, align 8
  ret ptr %99
}