; Function Attrs: nounwind uwtable
define ptr @Java_java_lang_ClassLoader_defineClass2(ptr noundef %0, ptr nocapture noundef readnone %1, ptr noundef %2, ptr noundef %3, ptr noundef %4, i32 noundef %5, i32 noundef %6, ptr noundef %7, ptr noundef %8) local_unnamed_addr #0 {
  %10 = alloca [128 x i8], align 16
  %11 = alloca [1024 x i8], align 16
  %12 = load ptr, ptr %0, align 8
  %13 = getelementptr inbounds i8, ptr %12, i64 1840
  %14 = load ptr, ptr %13, align 8
  %15 = tail call ptr %14(ptr noundef nonnull %0, ptr noundef %4) #4
  %16 = icmp eq ptr %15, null
  br i1 %16, label %17, label %18

17:                                               ; preds = %9
  tail call void @JNU_ThrowNullPointerException(ptr noundef nonnull %0, ptr noundef null) #4
  br label %66

18:                                               ; preds = %9
  %19 = sext i32 %5 to i64
  %20 = getelementptr inbounds i8, ptr %15, i64 %19
  %.not = icmp eq ptr %3, null
  br i1 %.not, label %39, label %21

21:                                               ; preds = %18
  %22 = load ptr, ptr %0, align 8
  %23 = getelementptr inbounds i8, ptr %22, i64 1344
  %24 = load ptr, ptr %23, align 8
  %25 = tail call i32 %24(ptr noundef nonnull %0, ptr noundef nonnull %3) #4
  %26 = load ptr, ptr %0, align 8
  %27 = getelementptr inbounds i8, ptr %26, i64 1312
  %28 = load ptr, ptr %27, align 8
  %29 = tail call i32 %28(ptr noundef nonnull %0, ptr noundef nonnull %3) #4
  %.not.i = icmp slt i32 %25, 128
  br i1 %.not.i, label %35, label %30

30:                                               ; preds = %21
  %31 = add nuw nsw i32 %25, 1
  %32 = zext nneg i32 %31 to i64
  %33 = tail call noalias ptr @malloc(i64 noundef %32) #5
  %34 = icmp eq ptr %33, null
  br i1 %34, label %getUTF.exit.thread, label %35

getUTF.exit.thread:                               ; preds = %30
  tail call void @JNU_ThrowOutOfMemoryError(ptr noundef nonnull %0, ptr noundef null) #4
  br label %66

35:                                               ; preds = %30, %21
  %.018.i = phi ptr [ %33, %30 ], [ %10, %21 ]
  %36 = load ptr, ptr %0, align 8
  %37 = getelementptr inbounds i8, ptr %36, i64 1768
  %38 = load ptr, ptr %37, align 8
  call void %38(ptr noundef nonnull %0, ptr noundef nonnull %3, i32 noundef 0, i32 noundef %29, ptr noundef nonnull %.018.i) #4
  call void @fixClassname(ptr noundef nonnull %.018.i) #4
  br label %39

39:                                               ; preds = %18, %35
  %.037 = phi ptr [ %.018.i, %35 ], [ null, %18 ]
  %.not44 = icmp eq ptr %8, null
  br i1 %.not44, label %57, label %40

40:                                               ; preds = %39
  %41 = load ptr, ptr %0, align 8
  %42 = getelementptr inbounds i8, ptr %41, i64 1344
  %43 = load ptr, ptr %42, align 8
  %44 = call i32 %43(ptr noundef nonnull %0, ptr noundef nonnull %8) #4
  %45 = load ptr, ptr %0, align 8
  %46 = getelementptr inbounds i8, ptr %45, i64 1312
  %47 = load ptr, ptr %46, align 8
  %48 = call i32 %47(ptr noundef nonnull %0, ptr noundef nonnull %8) #4
  %.not.i45 = icmp slt i32 %44, 1024
  br i1 %.not.i45, label %getUTF.exit48, label %49

49:                                               ; preds = %40
  %50 = add nuw nsw i32 %44, 1
  %51 = zext nneg i32 %50 to i64
  %52 = call noalias ptr @malloc(i64 noundef %51) #5
  %53 = icmp eq ptr %52, null
  br i1 %53, label %getUTF.exit48.thread, label %getUTF.exit48

getUTF.exit48.thread:                             ; preds = %49
  call void @JNU_ThrowOutOfMemoryError(ptr noundef nonnull %0, ptr noundef null) #4
  br label %62

getUTF.exit48:                                    ; preds = %40, %49
  %.018.i46 = phi ptr [ %52, %49 ], [ %11, %40 ]
  %54 = load ptr, ptr %0, align 8
  %55 = getelementptr inbounds i8, ptr %54, i64 1768
  %56 = load ptr, ptr %55, align 8
  call void %56(ptr noundef nonnull %0, ptr noundef nonnull %8, i32 noundef 0, i32 noundef %48, ptr noundef nonnull %.018.i46) #4
  br label %57

57:                                               ; preds = %getUTF.exit48, %39
  %.0 = phi ptr [ %.018.i46, %getUTF.exit48 ], [ null, %39 ]
  %58 = call ptr @JVM_DefineClassWithSource(ptr noundef nonnull %0, ptr noundef %.037, ptr noundef %2, ptr noundef nonnull %20, i32 noundef %6, ptr noundef %7, ptr noundef %.0) #4
  %59 = icmp ne ptr %.0, null
  %60 = icmp ne ptr %.0, %11
  %or.cond = and i1 %59, %60
  br i1 %or.cond, label %61, label %62

61:                                               ; preds = %57
  call void @free(ptr noundef nonnull %.0) #4
  br label %62

62:                                               ; preds = %getUTF.exit48.thread, %57, %61
  %.036 = phi ptr [ %58, %61 ], [ %58, %57 ], [ null, %getUTF.exit48.thread ]
  %63 = icmp ne ptr %.037, null
  %64 = icmp ne ptr %.037, %10
  %or.cond5 = and i1 %63, %64
  br i1 %or.cond5, label %65, label %66

65:                                               ; preds = %62
  call void @free(ptr noundef nonnull %.037) #4
  br label %66

66:                                               ; preds = %getUTF.exit.thread, %62, %65, %17
  %.038 = phi ptr [ null, %17 ], [ %.036, %65 ], [ %.036, %62 ], [ null, %getUTF.exit.thread ]
  ret ptr %.038
}